; Function Attrs: mustprogress nofree norecurse nosync nounwind memory(readwrite, inaccessiblemem: none) uwtable
define internal fastcc void @_ZN4ncnnL26padding_constant_pack4_sseERKNS_3MatERS0_iiiiRKDv4_f(ptr nocapture noundef nonnull readonly align 8 dereferenceable(72) %0, ptr nocapture writeonly %.0.val, i32 %.44.val, i32 noundef %1, i32 noundef %2, i32 noundef %3, i32 noundef %4, ptr nocapture noundef nonnull readonly align 16 dereferenceable(16) %5) unnamed_addr #4 {
  %7 = load ptr, ptr %0, align 8
  %8 = mul nsw i32 %1, %.44.val
  %9 = mul i32 %2, %.44.val
  %10 = icmp sgt i32 %8, 0
  br i1 %10, label %.lr.ph.preheader, label %.preheader4

.lr.ph.preheader:                                 ; preds = %6
  %.pre = load <4 x float>, ptr %5, align 16
  br label %.lr.ph

.preheader4:                                      ; preds = %.lr.ph, %6
  %.058.lcssa = phi ptr [ %.0.val, %6 ], [ %49, %.lr.ph ]
  %11 = getelementptr inbounds nuw i8, ptr %0, i64 48
  %12 = load i32, ptr %11, align 8
  %13 = icmp sgt i32 %12, 0
  br i1 %13, label %.preheader3.lr.ph, label %.preheader

.preheader3.lr.ph:                                ; preds = %.preheader4
  %14 = icmp sgt i32 %3, 0
  %15 = getelementptr inbounds nuw i8, ptr %0, i64 44
  %16 = icmp sgt i32 %4, 0
  br i1 %14, label %.preheader3.us, label %.preheader3.lr.ph.split

.preheader3.us:                                   ; preds = %.preheader3.lr.ph, %._crit_edge.us
  %.05523.us = phi i32 [ %17, %._crit_edge.us ], [ 0, %.preheader3.lr.ph ]
  %.05722.us = phi ptr [ %.1.lcssa.us, %._crit_edge.us ], [ %7, %.preheader3.lr.ph ]
  %.15921.us = phi ptr [ %.4.lcssa.us, %._crit_edge.us ], [ %.058.lcssa, %.preheader3.lr.ph ]
  %.pre77 = load <4 x float>, ptr %5, align 16
  br label %28

._crit_edge.us:                                   ; preds = %.lr.ph19.us, %.preheader1.us
  %.4.lcssa.us = phi ptr [ %.3.lcssa.us, %.preheader1.us ], [ %20, %.lr.ph19.us ]
  %17 = add nuw nsw i32 %.05523.us, 1
  %18 = load i32, ptr %11, align 8
  %19 = icmp slt i32 %17, %18
  br i1 %19, label %.preheader3.us, label %.preheader, !llvm.loop !115

.lr.ph19.us:                                      ; preds = %.lr.ph19.us.preheader, %.lr.ph19.us
  %.05218.us = phi i32 [ %21, %.lr.ph19.us ], [ 0, %.lr.ph19.us.preheader ]
  %.417.us = phi ptr [ %20, %.lr.ph19.us ], [ %.3.lcssa.us, %.lr.ph19.us.preheader ]
  store <4 x float> %.pre78, ptr %.417.us, align 16
  %20 = getelementptr inbounds i8, ptr %.417.us, i64 16
  %21 = add nuw nsw i32 %.05218.us, 1
  %exitcond73.not = icmp eq i32 %21, %4
  br i1 %exitcond73.not, label %._crit_edge.us, label %.lr.ph19.us, !llvm.loop !116

.lr.ph14.us:                                      ; preds = %..preheader2_crit_edge.us, %.lr.ph14.us
  %.05313.us = phi i32 [ %25, %.lr.ph14.us ], [ 0, %..preheader2_crit_edge.us ]
  %.112.us = phi ptr [ %23, %.lr.ph14.us ], [ %.05722.us, %..preheader2_crit_edge.us ]
  %.311.us = phi ptr [ %24, %.lr.ph14.us ], [ %29, %..preheader2_crit_edge.us ]
  %22 = load <4 x float>, ptr %.112.us, align 16
  store <4 x float> %22, ptr %.311.us, align 16
  %23 = getelementptr inbounds i8, ptr %.112.us, i64 16
  %24 = getelementptr inbounds i8, ptr %.311.us, i64 16
  %25 = add nuw nsw i32 %.05313.us, 1
  %26 = load i32, ptr %15, align 4
  %27 = icmp slt i32 %25, %26
  br i1 %27, label %.lr.ph14.us, label %.preheader1.us, !llvm.loop !117

28:                                               ; preds = %.preheader3.us, %28
  %.0548.us = phi i32 [ 0, %.preheader3.us ], [ %30, %28 ]
  %.27.us = phi ptr [ %.15921.us, %.preheader3.us ], [ %29, %28 ]
  store <4 x float> %.pre77, ptr %.27.us, align 16
  %29 = getelementptr inbounds i8, ptr %.27.us, i64 16
  %30 = add nuw nsw i32 %.0548.us, 1
  %exitcond72.not = icmp eq i32 %30, %3
  br i1 %exitcond72.not, label %..preheader2_crit_edge.us, label %28, !llvm.loop !118

.preheader1.us:                                   ; preds = %.lr.ph14.us, %..preheader2_crit_edge.us
  %.3.lcssa.us = phi ptr [ %29, %..preheader2_crit_edge.us ], [ %24, %.lr.ph14.us ]
  %.1.lcssa.us = phi ptr [ %.05722.us, %..preheader2_crit_edge.us ], [ %23, %.lr.ph14.us ]
  br i1 %16, label %.lr.ph19.us.preheader, label %._crit_edge.us

.lr.ph19.us.preheader:                            ; preds = %.preheader1.us
  %.pre78 = load <4 x float>, ptr %5, align 16
  br label %.lr.ph19.us

..preheader2_crit_edge.us:                        ; preds = %28
  %31 = load i32, ptr %15, align 4
  %32 = icmp sgt i32 %31, 0
  br i1 %32, label %.lr.ph14.us, label %.preheader1.us

.preheader3.lr.ph.split:                          ; preds = %.preheader3.lr.ph
  br i1 %16, label %.preheader3.us25, label %.preheader3.lr.ph.split.split

.preheader3.us25:                                 ; preds = %.preheader3.lr.ph.split, %._crit_edge.us43
  %.05523.us26 = phi i32 [ %44, %._crit_edge.us43 ], [ 0, %.preheader3.lr.ph.split ]
  %.05722.us27 = phi ptr [ %.1.lcssa.us37, %._crit_edge.us43 ], [ %7, %.preheader3.lr.ph.split ]
  %.15921.us28 = phi ptr [ %36, %._crit_edge.us43 ], [ %.058.lcssa, %.preheader3.lr.ph.split ]
  %33 = load i32, ptr %15, align 4
  %34 = icmp sgt i32 %33, 0
  br i1 %34, label %.lr.ph14.us38, label %.preheader1.us35

35:                                               ; preds = %.preheader1.us35, %35
  %.05218.us30 = phi i32 [ 0, %.preheader1.us35 ], [ %37, %35 ]
  %.417.us31 = phi ptr [ %.3.lcssa.us36, %.preheader1.us35 ], [ %36, %35 ]
  store <4 x float> %.pre76, ptr %.417.us31, align 16
  %36 = getelementptr inbounds i8, ptr %.417.us31, i64 16
  %37 = add nuw nsw i32 %.05218.us30, 1
  %exitcond71.not = icmp eq i32 %37, %4
  br i1 %exitcond71.not, label %._crit_edge.us43, label %35, !llvm.loop !116

.lr.ph14.us38:                                    ; preds = %.preheader3.us25, %.lr.ph14.us38
  %.05313.us32 = phi i32 [ %41, %.lr.ph14.us38 ], [ 0, %.preheader3.us25 ]
  %.112.us33 = phi ptr [ %39, %.lr.ph14.us38 ], [ %.05722.us27, %.preheader3.us25 ]
  %.311.us34 = phi ptr [ %40, %.lr.ph14.us38 ], [ %.15921.us28, %.preheader3.us25 ]
  %38 = load <4 x float>, ptr %.112.us33, align 16
  store <4 x float> %38, ptr %.311.us34, align 16
  %39 = getelementptr inbounds i8, ptr %.112.us33, i64 16
  %40 = getelementptr inbounds i8, ptr %.311.us34, i64 16
  %41 = add nuw nsw i32 %.05313.us32, 1
  %42 = load i32, ptr %15, align 4
  %43 = icmp slt i32 %41, %42
  br i1 %43, label %.lr.ph14.us38, label %.preheader1.us35, !llvm.loop !117

.preheader1.us35:                                 ; preds = %.lr.ph14.us38, %.preheader3.us25
  %.3.lcssa.us36 = phi ptr [ %.15921.us28, %.preheader3.us25 ], [ %40, %.lr.ph14.us38 ]
  %.1.lcssa.us37 = phi ptr [ %.05722.us27, %.preheader3.us25 ], [ %39, %.lr.ph14.us38 ]
  %.pre76 = load <4 x float>, ptr %5, align 16
  br label %35

._crit_edge.us43:                                 ; preds = %35
  %44 = add nuw nsw i32 %.05523.us26, 1
  %45 = load i32, ptr %11, align 8
  %46 = icmp slt i32 %44, %45
  br i1 %46, label %.preheader3.us25, label %.preheader, !llvm.loop !115

.preheader3.lr.ph.split.split:                    ; preds = %.preheader3.lr.ph.split
  %47 = load i32, ptr %15, align 4
  %48 = icmp sgt i32 %47, 0
  br i1 %48, label %.preheader3, label %.preheader

.lr.ph:                                           ; preds = %.lr.ph.preheader, %.lr.ph
  %.0566 = phi i32 [ %50, %.lr.ph ], [ 0, %.lr.ph.preheader ]
  %.0585 = phi ptr [ %49, %.lr.ph ], [ %.0.val, %.lr.ph.preheader ]
  store <4 x float> %.pre, ptr %.0585, align 16
  %49 = getelementptr inbounds i8, ptr %.0585, i64 16
  %50 = add nuw nsw i32 %.0566, 1
  %exitcond.not = icmp eq i32 %50, %8
  br i1 %exitcond.not, label %.preheader4, label %.lr.ph, !llvm.loop !119

.preheader3:                                      ; preds = %.preheader3.lr.ph.split.split, %.preheader1
  %51 = phi i32 [ %55, %.preheader1 ], [ %12, %.preheader3.lr.ph.split.split ]
  %52 = phi i32 [ %56, %.preheader1 ], [ %47, %.preheader3.lr.ph.split.split ]
  %.05523 = phi i32 [ %57, %.preheader1 ], [ 0, %.preheader3.lr.ph.split.split ]
  %.05722 = phi ptr [ %.1.lcssa, %.preheader1 ], [ %7, %.preheader3.lr.ph.split.split ]
  %.15921 = phi ptr [ %.3.lcssa, %.preheader1 ], [ %.058.lcssa, %.preheader3.lr.ph.split.split ]
  %53 = icmp sgt i32 %52, 0
  br i1 %53, label %.lr.ph14, label %.preheader1

.preheader:                                       ; preds = %.preheader1, %._crit_edge.us43, %._crit_edge.us, %.preheader3.lr.ph.split.split, %.preheader4
  %.159.lcssa = phi ptr [ %.058.lcssa, %.preheader4 ], [ %.058.lcssa, %.preheader3.lr.ph.split.split ], [ %.4.lcssa.us, %._crit_edge.us ], [ %36, %._crit_edge.us43 ], [ %.3.lcssa, %.preheader1 ]
  %54 = icmp sgt i32 %9, 0
  br i1 %54, label %.lr.ph58.preheader, label %._crit_edge

.lr.ph58.preheader:                               ; preds = %.preheader
  %.pre79 = load <4 x float>, ptr %5, align 16
  br label %.lr.ph58

.preheader1.loopexit:                             ; preds = %.lr.ph14
  %.pre75 = load i32, ptr %11, align 8
  br label %.preheader1

.preheader1:                                      ; preds = %.preheader1.loopexit, %.preheader3
  %55 = phi i32 [ %51, %.preheader3 ], [ %.pre75, %.preheader1.loopexit ]
  %56 = phi i32 [ %52, %.preheader3 ], [ %63, %.preheader1.loopexit ]
  %.3.lcssa = phi ptr [ %.15921, %.preheader3 ], [ %61, %.preheader1.loopexit ]
  %.1.lcssa = phi ptr [ %.05722, %.preheader3 ], [ %60, %.preheader1.loopexit ]
  %57 = add nuw nsw i32 %.05523, 1
  %58 = icmp slt i32 %57, %55
  br i1 %58, label %.preheader3, label %.preheader, !llvm.loop !120

.lr.ph14:                                         ; preds = %.preheader3, %.lr.ph14
  %.05313 = phi i32 [ %62, %.lr.ph14 ], [ 0, %.preheader3 ]
  %.112 = phi ptr [ %60, %.lr.ph14 ], [ %.05722, %.preheader3 ]
  %.311 = phi ptr [ %61, %.lr.ph14 ], [ %.15921, %.preheader3 ]
  %59 = load <4 x float>, ptr %.112, align 16
  store <4 x float> %59, ptr %.311, align 16
  %60 = getelementptr inbounds i8, ptr %.112, i64 16
  %61 = getelementptr inbounds i8, ptr %.311, i64 16
  %62 = add nuw nsw i32 %.05313, 1
  %63 = load i32, ptr %15, align 4
  %64 = icmp slt i32 %62, %63
  br i1 %64, label %.lr.ph14, label %.preheader1.loopexit, !llvm.loop !117

.lr.ph58:                                         ; preds = %.lr.ph58.preheader, %.lr.ph58
  %.057 = phi i32 [ %66, %.lr.ph58 ], [ 0, %.lr.ph58.preheader ]
  %.556 = phi ptr [ %65, %.lr.ph58 ], [ %.159.lcssa, %.lr.ph58.preheader ]
  store <4 x float> %.pre79, ptr %.556, align 16
  %65 = getelementptr inbounds i8, ptr %.556, i64 16
  %66 = add nuw nsw i32 %.057, 1
  %exitcond74.not = icmp eq i32 %66, %9
  br i1 %exitcond74.not, label %._crit_edge, label %.lr.ph58, !llvm.loop !121

._crit_edge:                                      ; preds = %.lr.ph58, %.preheader
  ret void
}